; Function Attrs: nounwind uwtable
define void @Nwk_ManDfsNodes_rec(ptr noundef %0, ptr noundef captures(none) %1) local_unnamed_addr #0 {
  %.val = load ptr, ptr %0, align 8
  %3 = getelementptr i8, ptr %0, i64 40
  %.val14 = load i32, ptr %3, align 8
  %4 = getelementptr i8, ptr %.val, i64 104
  %.val.val = load i32, ptr %4, align 8
  %.not = icmp eq i32 %.val14, %.val.val
  br i1 %.not, label %50, label %5

5:                                                ; preds = %2
  store i32 %.val.val, ptr %3, align 8
  %6 = getelementptr i8, ptr %0, i64 32
  %.val15 = load i32, ptr %6, align 8
  %7 = and i32 %.val15, 7
  %.not16 = icmp eq i32 %7, 1
  br i1 %.not16, label %50, label %.preheader

.preheader:                                       ; preds = %5
  %8 = getelementptr inbounds nuw i8, ptr %0, i64 72
  %9 = getelementptr inbounds nuw i8, ptr %0, i64 60
  %10 = load i32, ptr %9, align 4
  %11 = icmp sgt i32 %10, 0
  br i1 %11, label %.lr.ph, label %.critedge

.lr.ph:                                           ; preds = %.preheader, %15
  %indvars.iv = phi i64 [ %indvars.iv.next, %15 ], [ 0, %.preheader ]
  %12 = load ptr, ptr %8, align 8
  %13 = getelementptr inbounds nuw ptr, ptr %12, i64 %indvars.iv
  %14 = load ptr, ptr %13, align 8
  %.not13 = icmp eq ptr %14, null
  br i1 %.not13, label %.critedge, label %15

15:                                               ; preds = %.lr.ph
  tail call void @Nwk_ManDfsNodes_rec(ptr noundef nonnull %14, ptr noundef %1)
  %indvars.iv.next = add nuw nsw i64 %indvars.iv, 1
  %16 = load i32, ptr %9, align 4
  %17 = sext i32 %16 to i64
  %18 = icmp slt i64 %indvars.iv.next, %17
  br i1 %18, label %.lr.ph, label %.critedge, !llvm.loop !22

.critedge:                                        ; preds = %.lr.ph, %15, %.preheader
  %19 = getelementptr inbounds nuw i8, ptr %1, i64 4
  %20 = load i32, ptr %19, align 4
  %21 = load i32, ptr %1, align 8
  %22 = icmp eq i32 %20, %21
  br i1 %22, label %23, label %.Vec_PtrGrow.exit11_crit_edge.i

.Vec_PtrGrow.exit11_crit_edge.i:                  ; preds = %.critedge
  %.phi.trans.insert.i = getelementptr inbounds nuw i8, ptr %1, i64 8
  %.pre.i = load ptr, ptr %.phi.trans.insert.i, align 8
  br label %Vec_PtrPush.exit

23:                                               ; preds = %.critedge
  %24 = icmp slt i32 %20, 16
  br i1 %24, label %25, label %33

25:                                               ; preds = %23
  %26 = getelementptr inbounds nuw i8, ptr %1, i64 8
  %27 = load ptr, ptr %26, align 8
  %.not9.i.i = icmp eq ptr %27, null
  br i1 %.not9.i.i, label %30, label %28

28:                                               ; preds = %25
  %29 = tail call dereferenceable_or_null(128) ptr @realloc(ptr noundef nonnull %27, i64 noundef 128) #11
  br label %Vec_PtrGrow.exit.i

30:                                               ; preds = %25
  %31 = tail call noalias dereferenceable_or_null(128) ptr @malloc(i64 noundef 128) #10
  br label %Vec_PtrGrow.exit.i

Vec_PtrGrow.exit.i:                               ; preds = %30, %28
  %32 = phi ptr [ %29, %28 ], [ %31, %30 ]
  store ptr %32, ptr %26, align 8
  store i32 16, ptr %1, align 8
  br label %Vec_PtrPush.exit

33:                                               ; preds = %23
  %34 = shl nuw nsw i32 %20, 1
  %35 = getelementptr inbounds nuw i8, ptr %1, i64 8
  %36 = load ptr, ptr %35, align 8
  %.not9.i10.i = icmp eq ptr %36, null
  %37 = zext nneg i32 %34 to i64
  %38 = shl nuw nsw i64 %37, 3
  br i1 %.not9.i10.i, label %41, label %39

39:                                               ; preds = %33
  %40 = tail call ptr @realloc(ptr noundef nonnull %36, i64 noundef %38) #11
  br label %43

41:                                               ; preds = %33
  %42 = tail call noalias ptr @malloc(i64 noundef %38) #10
  br label %43

43:                                               ; preds = %41, %39
  %44 = phi ptr [ %40, %39 ], [ %42, %41 ]
  store ptr %44, ptr %35, align 8
  store i32 %34, ptr %1, align 8
  br label %Vec_PtrPush.exit

Vec_PtrPush.exit:                                 ; preds = %.Vec_PtrGrow.exit11_crit_edge.i, %Vec_PtrGrow.exit.i, %43
  %45 = phi ptr [ %.pre.i, %.Vec_PtrGrow.exit11_crit_edge.i ], [ %44, %43 ], [ %32, %Vec_PtrGrow.exit.i ]
  %46 = load i32, ptr %19, align 4
  %47 = add nsw i32 %46, 1
  store i32 %47, ptr %19, align 4
  %48 = sext i32 %46 to i64
  %49 = getelementptr inbounds ptr, ptr %45, i64 %48
  store ptr %0, ptr %49, align 8
  br label %50

50:                                               ; preds = %5, %2, %Vec_PtrPush.exit
  ret void
}